target datalayout = "e-m:e-p270:32:32-p271:32:32-p272:64:64-i64:64-i128:128-f80:128-n8:16:32:64-S128"
target triple = "x86_64-pc-linux-gnu"

%struct.rb_transcoder = type { ptr, ptr, i32, ptr, i32, ptr, i32, i32, i32, i32, i32, i32, i64, ptr, ptr, ptr, ptr, ptr, ptr, ptr, ptr, ptr, ptr }
%struct.rb_econv_t = type { i32, i32, ptr, ptr, ptr, i64, ptr, ptr, ptr, ptr, ptr, ptr, i32, i32, i32, i32, ptr, %struct.anon, ptr, ptr }
%struct.anon = type { i32, ptr, ptr, ptr, ptr, i64, i64 }
%struct.rb_econv_elem_t = type { ptr, ptr, ptr, ptr, ptr, i32 }
%struct.rb_transcoding = type { ptr, i32, i32, i32, i64, i8, i32, i64, i64, %union.anon, i64, i64, %union.anon.0, %union.rb_transcoding_state_t }
%union.anon = type { ptr }
%union.anon.0 = type { ptr }
%union.rb_transcoding_state_t = type { ptr }

; Function Attrs: alwaysinline nounwind
define internal ptr @memcpy.inline(ptr noalias nonnull %0, ptr noalias nonnull %1, i64 %2) #6 {
  %4 = alloca ptr, align 8
  %5 = alloca ptr, align 8
  %6 = alloca i64, align 8
  store ptr %0, ptr %4, align 8, !tbaa !23
  store ptr %1, ptr %5, align 8, !tbaa !23
  store i64 %2, ptr %6, align 8, !tbaa !12
  %7 = load ptr, ptr %4, align 8, !tbaa !23
  %8 = load ptr, ptr %5, align 8, !tbaa !23
  %9 = load i64, ptr %6, align 8, !tbaa !12
  %10 = load ptr, ptr %4, align 8, !tbaa !23
  %11 = call i64 @llvm.objectsize.i64.p0(ptr %10, i1 false, i1 true, i1 false)
  %12 = call ptr @__memcpy_chk(ptr noundef %7, ptr noundef %8, i64 noundef %9, i64 noundef %11) #25
  ret ptr %12
}

; Function Attrs: inlinehint nounwind sspstrong memory(argmem: readwrite, inaccessiblemem: readwrite) uwtable
define internal nonnull ptr @ruby_nonempty_memcpy(ptr noundef nonnull %0, ptr noundef %1, i64 noundef %2) #9 {
  %4 = alloca ptr, align 8
  %5 = alloca ptr, align 8
  %6 = alloca ptr, align 8
  %7 = alloca i64, align 8
  store ptr %0, ptr %5, align 8, !tbaa !23
  store ptr %1, ptr %6, align 8, !tbaa !23
  store i64 %2, ptr %7, align 8, !tbaa !12
  %8 = load i64, ptr %7, align 8, !tbaa !12
  %9 = icmp ne i64 %8, 0
  br i1 %9, label %10, label %15

10:                                               ; preds = %3
  %11 = load ptr, ptr %5, align 8, !tbaa !23
  %12 = load ptr, ptr %6, align 8, !tbaa !23
  %13 = load i64, ptr %7, align 8, !tbaa !12
  %14 = call ptr @memcpy.inline(ptr noundef %11, ptr noundef %12, i64 noundef %13) #25
  store ptr %14, ptr %4, align 8
  br label %17

15:                                               ; preds = %3
  %16 = load ptr, ptr %5, align 8, !tbaa !23
  store ptr %16, ptr %4, align 8
  br label %17

17:                                               ; preds = %15, %10
  %18 = load ptr, ptr %4, align 8
  ret ptr %18
}

; Function Attrs: nounwind sspstrong uwtable
define dso_local void @rb_econv_putback(ptr noundef %0, ptr noundef %1, i32 noundef %2) #0 {
  %4 = alloca ptr, align 8
  %5 = alloca ptr, align 8
  %6 = alloca i32, align 4
  %7 = alloca ptr, align 8
  %8 = alloca i32, align 4
  store ptr %0, ptr %4, align 8, !tbaa !30
  store ptr %1, ptr %5, align 8, !tbaa !21
  store i32 %2, ptr %6, align 4, !tbaa !29
  call void @llvm.lifetime.start.p0(i64 8, ptr %7) #25
  %9 = load ptr, ptr %4, align 8, !tbaa !30
  %10 = getelementptr inbounds nuw %struct.rb_econv_t, ptr %9, i32 0, i32 14
  %11 = load i32, ptr %10, align 8, !tbaa !47
  %12 = icmp eq i32 %11, 0
  br i1 %12, label %16, label %13

13:                                               ; preds = %3
  %14 = load i32, ptr %6, align 4, !tbaa !29
  %15 = icmp eq i32 %14, 0
  br i1 %15, label %16, label %17

16:                                               ; preds = %13, %3
  store i32 1, ptr %8, align 4
  br label %62

17:                                               ; preds = %13
  %18 = load ptr, ptr %4, align 8, !tbaa !30
  %19 = getelementptr inbounds nuw %struct.rb_econv_t, ptr %18, i32 0, i32 11
  %20 = load ptr, ptr %19, align 8, !tbaa !48
  %21 = getelementptr %struct.rb_econv_elem_t, ptr %20, i64 0
  %22 = getelementptr inbounds nuw %struct.rb_econv_elem_t, ptr %21, i32 0, i32 0
  %23 = load ptr, ptr %22, align 8, !tbaa !49
  store ptr %23, ptr %7, align 8, !tbaa !66
  %24 = load ptr, ptr %5, align 8, !tbaa !21
  %25 = load ptr, ptr %7, align 8, !tbaa !66
  %26 = getelementptr inbounds nuw %struct.rb_transcoding, ptr %25, i32 0, i32 0
  %27 = load ptr, ptr %26, align 8, !tbaa !51
  %28 = getelementptr inbounds nuw %struct.rb_transcoder, ptr %27, i32 0, i32 9
  %29 = load i32, ptr %28, align 4, !tbaa !70
  %30 = icmp sle i32 %29, 8
  br i1 %30, label %31, label %35

31:                                               ; preds = %17
  %32 = load ptr, ptr %7, align 8, !tbaa !66
  %33 = getelementptr inbounds nuw %struct.rb_transcoding, ptr %32, i32 0, i32 9
  %34 = getelementptr inbounds [8 x i8], ptr %33, i64 0, i64 0
  br label %39

35:                                               ; preds = %17
  %36 = load ptr, ptr %7, align 8, !tbaa !66
  %37 = getelementptr inbounds nuw %struct.rb_transcoding, ptr %36, i32 0, i32 9
  %38 = load ptr, ptr %37, align 8, !tbaa !41
  br label %39

39:                                               ; preds = %35, %31
  %40 = phi ptr [ %34, %31 ], [ %38, %35 ]
  %41 = load ptr, ptr %7, align 8, !tbaa !66
  %42 = getelementptr inbounds nuw %struct.rb_transcoding, ptr %41, i32 0, i32 7
  %43 = load i64, ptr %42, align 8, !tbaa !72
  %44 = getelementptr i8, ptr %40, i64 %43
  %45 = load ptr, ptr %7, align 8, !tbaa !66
  %46 = getelementptr inbounds nuw %struct.rb_transcoding, ptr %45, i32 0, i32 8
  %47 = load i64, ptr %46, align 8, !tbaa !74
  %48 = getelementptr i8, ptr %44, i64 %47
  %49 = load i32, ptr %6, align 4, !tbaa !29
  %50 = sext i32 %49 to i64
  %51 = sub i64 0, %50
  %52 = getelementptr i8, ptr %48, i64 %51
  %53 = load i32, ptr %6, align 4, !tbaa !29
  %54 = sext i32 %53 to i64
  %55 = call nonnull ptr @ruby_nonempty_memcpy(ptr noundef %24, ptr noundef %52, i64 noundef %54) #28
  %56 = load i32, ptr %6, align 4, !tbaa !29
  %57 = sext i32 %56 to i64
  %58 = load ptr, ptr %7, align 8, !tbaa !66
  %59 = getelementptr inbounds nuw %struct.rb_transcoding, ptr %58, i32 0, i32 8
  %60 = load i64, ptr %59, align 8, !tbaa !74
  %61 = sub i64 %60, %57
  store i64 %61, ptr %59, align 8, !tbaa !74
  store i32 0, ptr %8, align 4
  br label %62

62:                                               ; preds = %39, %16
  call void @llvm.lifetime.end.p0(i64 8, ptr %7) #25
  %63 = load i32, ptr %8, align 4
  switch i32 %63, label %65 [
    i32 0, label %64
    i32 1, label %64
  ]

64:                                               ; preds = %62, %62
  ret void

65:                                               ; preds = %62
  unreachable
}