; Function Attrs: nofree nounwind sspstrong memory(readwrite, inaccessiblemem: none) uwtable
define dso_local void @rb_econv_putback(ptr noundef readonly captures(none) %0, ptr noundef %1, i32 noundef %2) local_unnamed_addr #9 {
  %4 = getelementptr inbounds nuw i8, ptr %0, i64 96
  %5 = load i32, ptr %4, align 8, !tbaa !46
  %6 = icmp eq i32 %5, 0
  %7 = icmp eq i32 %2, 0
  %or.cond = or i1 %7, %6
  br i1 %or.cond, label %31, label %8

8:                                                ; preds = %3
  %9 = getelementptr inbounds nuw i8, ptr %0, i64 80
  %10 = load ptr, ptr %9, align 8, !tbaa !47
  %11 = load ptr, ptr %10, align 8, !tbaa !63
  %12 = load ptr, ptr %11, align 8, !tbaa !65
  %13 = getelementptr inbounds nuw i8, ptr %12, i64 60
  %14 = load i32, ptr %13, align 4, !tbaa !77
  %15 = icmp slt i32 %14, 9
  %16 = getelementptr inbounds nuw i8, ptr %11, i64 56
  br i1 %15, label %ruby_nonempty_memcpy.exit, label %17

17:                                               ; preds = %8
  %18 = load ptr, ptr %16, align 8, !tbaa !27
  br label %ruby_nonempty_memcpy.exit

ruby_nonempty_memcpy.exit:                        ; preds = %8, %17
  %19 = phi ptr [ %18, %17 ], [ %16, %8 ]
  %20 = getelementptr inbounds nuw i8, ptr %11, i64 48
  %21 = sext i32 %2 to i64
  %22 = getelementptr inbounds nuw i8, ptr %11, i64 40
  %23 = load i64, ptr %22, align 8, !tbaa !92
  %24 = getelementptr i8, ptr %19, i64 %23
  %25 = load i64, ptr %20, align 8, !tbaa !94
  %26 = getelementptr i8, ptr %24, i64 %25
  %27 = sub nsw i64 0, %21
  %28 = getelementptr i8, ptr %26, i64 %27
  tail call void @llvm.memcpy.p0.p0.i64(ptr noundef nonnull align 1 %1, ptr noundef nonnull readonly align 1 %28, i64 noundef range(i64 1, 0) %21, i1 noundef false) #22
  %29 = load i64, ptr %20, align 8, !tbaa !94
  %30 = sub i64 %29, %21
  store i64 %30, ptr %20, align 8, !tbaa !94
  br label %31

31:                                               ; preds = %3, %ruby_nonempty_memcpy.exit
  ret void
}